target datalayout = "e-m:e-p270:32:32-p271:32:32-p272:64:64-i64:64-i128:128-f80:128-n8:16:32:64-S128"
target triple = "x86_64-pc-linux-gnu"

%struct._ir_ctx = type { ptr, i32, i32, i32, i32, i32, i32, i32, i32, i32, i32, %struct._ir_insn, ptr, ptr, ptr, i32, i32, i32, ptr, ptr, ptr, ptr, ptr, ptr, i32, i32, i64, i32, i32, i32, i64, i32, i32, i32, i32, ptr, ptr, ptr, ptr, ptr, ptr, %union.anon.13, ptr, i32, i32, i32, i64, i32, i32, i32, ptr, ptr, ptr, ptr, %struct._ir_strtab, [61 x i32], [14 x i32] }
%struct._ir_insn = type { %struct.anon, %union.anon.5 }
%struct.anon = type { %union.anon, %union.anon.4 }
%union.anon = type { i32 }
%union.anon.4 = type { i32 }
%union.anon.5 = type { %union._ir_val }
%union._ir_val = type { double }
%union.anon.13 = type { ptr }
%struct._ir_strtab = type { ptr, i32, i32, i32, i32, ptr, i32, i32 }
%struct._ir_block = type { i32, i32, i32, i32, i32, i32, i32, %union.anon.14, %union.anon.15, i32, i32, i32, i32 }
%union.anon.14 = type { i32 }
%union.anon.15 = type { i32 }

; Function Attrs: nounwind uwtable
define internal i32 @_ir_skip_empty_blocks(ptr noundef %0, i32 noundef %1) #0 {
  %3 = alloca i32, align 4
  %4 = alloca ptr, align 8
  %5 = alloca i32, align 4
  %6 = alloca ptr, align 8
  %7 = alloca i32, align 4
  store ptr %0, ptr %4, align 8, !tbaa !4
  store i32 %1, ptr %5, align 4, !tbaa !32
  br label %8

8:                                                ; preds = %2, %35
  call void @llvm.lifetime.start.p0(i64 8, ptr %6) #12
  %9 = load ptr, ptr %4, align 8, !tbaa !4
  %10 = getelementptr inbounds nuw %struct._ir_ctx, ptr %9, i32 0, i32 18
  %11 = load ptr, ptr %10, align 8, !tbaa !29
  %12 = load i32, ptr %5, align 4, !tbaa !32
  %13 = zext i32 %12 to i64
  %14 = getelementptr inbounds nuw %struct._ir_block, ptr %11, i64 %13
  store ptr %14, ptr %6, align 8, !tbaa !52
  %15 = load ptr, ptr %6, align 8, !tbaa !52
  %16 = getelementptr inbounds nuw %struct._ir_block, ptr %15, i32 0, i32 0
  %17 = load i32, ptr %16, align 4, !tbaa !64
  %18 = and i32 %17, 70
  %19 = icmp eq i32 %18, 64
  br i1 %19, label %20, label %30

20:                                               ; preds = %8
  %21 = load ptr, ptr %4, align 8, !tbaa !4
  %22 = getelementptr inbounds nuw %struct._ir_ctx, ptr %21, i32 0, i32 19
  %23 = load ptr, ptr %22, align 8, !tbaa !30
  %24 = load ptr, ptr %6, align 8, !tbaa !52
  %25 = getelementptr inbounds nuw %struct._ir_block, ptr %24, i32 0, i32 3
  %26 = load i32, ptr %25, align 4, !tbaa !57
  %27 = zext i32 %26 to i64
  %28 = getelementptr inbounds nuw i32, ptr %23, i64 %27
  %29 = load i32, ptr %28, align 4, !tbaa !32
  store i32 %29, ptr %5, align 4, !tbaa !32
  br label %32

30:                                               ; preds = %8
  %31 = load i32, ptr %5, align 4, !tbaa !32
  store i32 %31, ptr %3, align 4
  store i32 1, ptr %7, align 4
  br label %33

32:                                               ; preds = %20
  store i32 0, ptr %7, align 4
  br label %33

33:                                               ; preds = %32, %30
  call void @llvm.lifetime.end.p0(i64 8, ptr %6) #12
  %34 = load i32, ptr %7, align 4
  switch i32 %34, label %38 [
    i32 0, label %35
    i32 1, label %36
  ]

35:                                               ; preds = %33
  br label %8

36:                                               ; preds = %33
  %37 = load i32, ptr %3, align 4
  ret i32 %37

38:                                               ; preds = %33
  unreachable
}

; Function Attrs: nounwind uwtable
define hidden i32 @ir_skip_empty_target_blocks(ptr noundef %0, i32 noundef %1) #0 {
  %3 = alloca ptr, align 8
  %4 = alloca i32, align 4
  store ptr %0, ptr %3, align 8, !tbaa !4
  store i32 %1, ptr %4, align 4, !tbaa !32
  %5 = load ptr, ptr %3, align 8, !tbaa !4
  %6 = load i32, ptr %4, align 4, !tbaa !32
  %7 = call i32 @_ir_skip_empty_blocks(ptr noundef %5, i32 noundef %6)
  ret i32 %7
}