; Function Attrs: nofree norecurse nosync nounwind memory(read, inaccessiblemem: none) uwtable
define hidden i32 @ir_skip_empty_target_blocks(ptr noundef readonly captures(none) %0, i32 noundef %1) local_unnamed_addr #7 {
  %3 = getelementptr inbounds nuw i8, ptr %0, i64 104
  %4 = load ptr, ptr %3, align 8, !tbaa !27
  %5 = zext i32 %1 to i64
  %6 = getelementptr inbounds nuw %struct._ir_block, ptr %4, i64 %5
  %7 = load i32, ptr %6, align 4, !tbaa !49
  %8 = and i32 %7, 70
  %.not14.i = icmp eq i32 %8, 64
  br i1 %.not14.i, label %.lr.ph.i, label %_ir_skip_empty_blocks.exit

.lr.ph.i:                                         ; preds = %2
  %9 = getelementptr inbounds nuw i8, ptr %0, i64 112
  %10 = load ptr, ptr %9, align 8, !tbaa !28
  br label %11

11:                                               ; preds = %11, %.lr.ph.i
  %12 = phi i64 [ %5, %.lr.ph.i ], [ %18, %11 ]
  %13 = getelementptr inbounds nuw %struct._ir_block, ptr %4, i64 %12, i32 3
  %14 = load i32, ptr %13, align 4, !tbaa !46
  %15 = zext i32 %14 to i64
  %16 = getelementptr inbounds nuw i32, ptr %10, i64 %15
  %17 = load i32, ptr %16, align 4, !tbaa !35
  %18 = zext i32 %17 to i64
  %19 = getelementptr inbounds nuw %struct._ir_block, ptr %4, i64 %18
  %20 = load i32, ptr %19, align 4, !tbaa !49
  %21 = and i32 %20, 70
  %.not.i = icmp eq i32 %21, 64
  br i1 %.not.i, label %11, label %_ir_skip_empty_blocks.exit

_ir_skip_empty_blocks.exit:                       ; preds = %11, %2
  %.08.lcssa.i = phi i32 [ %1, %2 ], [ %17, %11 ]
  ret i32 %.08.lcssa.i
}